; Function Attrs: nounwind uwtable
define internal noundef i32 @cid_slot_init(ptr noundef readonly captures(none) %0) #2 {
  %2 = getelementptr inbounds nuw i8, ptr %0, i64 8
  %3 = load ptr, ptr %2, align 8
  %4 = getelementptr inbounds nuw i8, ptr %3, i64 608
  %5 = load ptr, ptr %4, align 8
  %.not = icmp eq ptr %5, null
  br i1 %.not, label %16, label %6

6:                                                ; preds = %1
  %7 = load ptr, ptr %0, align 8
  %8 = tail call ptr @FT_Get_Module(ptr noundef %7, ptr noundef nonnull @.str.8) #13
  %.not10 = icmp eq ptr %8, null
  br i1 %.not10, label %16, label %9

9:                                                ; preds = %6
  %10 = getelementptr inbounds nuw i8, ptr %5, i64 8
  %11 = load ptr, ptr %10, align 8
  %12 = tail call ptr %11(ptr noundef nonnull %8) #13
  %13 = getelementptr inbounds nuw i8, ptr %0, i64 296
  %14 = load ptr, ptr %13, align 8
  %15 = getelementptr inbounds nuw i8, ptr %14, i64 64
  store ptr %12, ptr %15, align 8
  br label %16

16:                                               ; preds = %6, %9, %1
  ret i32 0
}